(lp0
F8.383704116529309
aF8.38406810302886
aF8.38415907691596
aF8.384613810015605
aF8.38506831605522
aF8.385704243481296
aF8.386248970742692
aF8.386611941229658
aF8.387156125717743
aF8.3872467915106
aF8.387790596700503
aF8.388605695808714
aF8.38869621733697
aF8.390685416796142
aF8.391136901963192
aF8.391317433345503
aF8.391768605214283
aF8.39194901136424
aF8.392670278618006
aF8.392940606559398
aF8.393030698035357
aF8.39384112031174
aF8.396178295197632
aF9.015316225433923
aF9.383673777749982
aF9.383795126800505
aF9.383825461535537
aF9.383916459675469
aF9.383946790367284
aF9.383977120048463
aF9.384007448719073
aF9.384310679858737
aF9.38434099741754
aF9.384522881567737
aF9.384765337246503
aF9.385462037798408
aF9.385492317033535
aF9.38558314869592
aF9.385704243481294
aF9.386248970742692
aF9.386309475876098
aF9.386400226035853
aF9.386430474078612
aF9.386460721116237
aF9.386642182237871
aF9.386672422241414
aF9.386732899234769
aF9.386793372210251
aF9.645563623672222
aF9.6456318822287
aF9.645700135666873
aF9.645927610171775
aF9.645973098251874
aF9.646064067593008
aF9.646086808507818
aF9.646132288633073
aF9.646291451178568
aF9.646882382805414
aF9.647086846711023
aF9.64724584244653
aF9.648063096396049
aF9.648153857112709
aF9.648176545877908
aF9.648516809508136
aF9.848695840029462
aF9.84871404244768
aF9.848823249313634
aF9.848896046612612
aF9.849059819251613
aF9.849241754297816
aF9.849296327721362
aF9.84960551533316
aF9.849623699569506
aF9.849641883442585
aF9.849841882074987
aF9.849987308029663
aF9.850078187454114
aF9.850114536683463
aF9.850278090254877
aF9.850532448523452
aF9.85055061425167
aF9.850677764199222
aF9.850913852704405
aF9.851004639673155
aF9.851639895039003
aF9.851748751457379
aF9.851839455195918
aF9.857373391087187
aF9.851857594859062
aF9.85216591383653
aF9.852619134464813
aF9.852655382368233
aF9.852673505778654
aF9.852800359548857
aF9.852854720038984
aF9.852909077282833
aF9.85299966547636
aF9.853343818414263
aF9.853669738054895
aF9.853850754109311
aF9.853868853735019
aF9.853941248639051
aF9.854176492319896
aF9.854194585469694
aF9.85464679736985
aF9.854954173185508
aF9.855116859546708
aF9.855478280725421
aF9.855514414951685
aF9.85565893751407
aF9.85573119019125
aF9.855767314379234
aF9.856272902536363
aF9.856525591343933
aF9.85657972982034
aF9.856994684531701
aF9.857301268651746
aF9.857571698323845
aF9.857932146285878
aF9.858526573546477
aF9.858562586967912
aF9.858670618683822
aF9.85895864059122
aF9.859426481899355
aF9.85949843614746
aF9.859894082871708
aF9.861259540783724
aF9.86181591626121
aF9.862264358577638
aF9.862336088850267
aF9.862389882845454
aF10.014558021256352
aF10.014740047865846
aF10.014755215106995
aF10.014846213246926
aF10.01487654393874
aF10.014891708905656
aF10.015013019546265
aF10.015513255113685
aF10.016058653288495
aF10.016346370628513
aF10.154869849643603
aF10.154882852782487
aF10.154986871206923
aF10.155012873955824
aF10.155064877225277
aF10.155077877578432
aF10.155090877745913
aF10.155116877523879
aF10.155142876559216
aF10.155168874851968
aF10.155181873719888
aF10.155220869209886
aF10.155285857980994
aF10.15529885517843
aF10.155311852190282
aF10.276413735791131
aF10.27644786869548
aF10.276482000319934
aF10.383623210870535
aF10.383653551335302
aF10.383724341820423
aF10.47953457604941
aF10.479570984162155
aF10.479580085962803
aF10.47962559360092
aF10.479671098963982
aF10.479680199763608
aF10.479689300472243
aF10.479725702396909
aF10.479743902813343
aF10.47975300288509
aF10.479771202755659
aF10.47982580018407
aF10.479834899437094
aF10.479862196650412
aF10.479880394337847
aF10.479916788621317
aF10.479934985217383
aF10.479944083379005
aF10.479962279429433
aF10.47998957282307
aF10.480035059993904
aF10.480080544891731
aF10.480126027516777
aF10.480135123769074
aF10.480153316000965
aF10.480162411980569
aF10.480171507869272
aF10.480180603667085
aF10.48019879499004
aF10.480216985949445
aF10.48028065144461
aF10.48030793529372
aF10.480317029728358
aF10.48033521832504
aF10.48035340655828
aF10.480362500538615
aF10.480417062512734
aF10.48047162121647
aF10.48050799186894
aF10.48051708430499
aF10.4805443610682
aF10.48058982052387
aF10.480671641823228
aF10.480680732624723
aF10.480708004484464
aF10.480744365693129
aF10.480889796004353
aF10.480917061601119
aF10.480944326381188
aF10.480980678150942
aF10.481026115821692
aF10.481044290254921
aF10.481089724750449
aF10.48111698435923
aF10.481144243151675
aF10.481253270159037
aF10.481371368015399
aF10.481434952822813
aF10.48144403600415
aF10.48145311909485
aF10.481489450551287
aF10.481516698191992
aF10.481543945017078
aF10.481571191026587
aF10.481616599230183
aF10.48162568059908
aF10.481662005168657
aF10.481680166909863
aF10.481716489305184
aF10.481725569677547
aF10.481734649959328
aF10.481752810251146
aF10.481770970180653
aF10.481816368419407
aF10.481843606275861
aF10.481861764394031
aF10.481879922149977
aF10.481916236575252
aF10.481925314955204
aF10.482115940021437
aF10.482152245032076
aF10.566296260169345
aF10.566329358273128
aF10.566354181061188
aF10.566362455173445
aF10.566403824606596
aF10.566503103575624
aF10.566511376334287
aF10.566519649017764
aF10.566527921626056
aF10.566561011307396
aF10.566569283539781
aF10.566585827779022
aF10.566627187061595
aF10.566718170868745
aF10.566883572676627
aF10.566900111204479
aF10.566949724985136
aF10.566957993685673
aF10.566991067736696
aF10.567156419967752
aF10.567280414431883
aF10.567305211297947
aF10.56733827273526
aF10.567453978310093
aF10.567627509099555
aF10.567660558832749
aF10.567734916345232
aF10.567850571514676
aF10.56804880333709
aF10.645480189595736
aF10.71834462020302
aF10.718372626702104
aF10.718379628192235
aF10.718456641029452
aF10.718526647045856
aF10.71867364215731
aF10.785832110713987
aF10.78583861207446
aF10.785851614656107
aF10.785871118180316
aF10.785884120297627
aF10.785975129918855
aF10.7859816302579
aF10.786046631095337
aF10.786066130441457
aF10.78608562936987
aF10.78613112524517
aF10.786137624470298
aF10.786189616600808
aF10.786209112884137
aF10.786222110174368
aF10.786306588037451
aF10.786378063182973
aF10.78652099663879
aF10.786527493080794
aF10.786540485825704
aF10.786546982128614
aF10.786559974595344
aF10.786611942607841
aF10.78666390765351
aF10.78674834452592
aF10.786839267783623
aF10.78685225607906
aF10.786865244189167
aF10.786904207407572
aF10.786930181959963
aF10.786982128841222
aF10.786988621992938
aF10.786995115098335
aF10.787001608157414
aF10.787014594136622
aF10.78702757993057
aF10.787086013710844
aF10.78709899848594
aF10.787137951699881
aF10.78714444374014
aF10.78715742768175
aF10.787235327442309
aF10.78726778370835
aF10.787287256912489
aF10.787300238817142
aF10.787339183420244
aF10.787423557677918
aF10.78746249700529
aF10.787605260288887
aF10.787611748997058
aF10.787657168659157
aF10.78767663353486
aF10.848598754317578
aF10.848641230590697
aF10.848659434100984
aF10.848677637247235
aF10.848689772475833
aF10.84869584002946
aF10.848714042447682
aF10.84872617719094
aF10.84874437900251
aF10.848792915387333
aF10.848798982253465
aF10.848841449184201
aF10.848853582229083
aF10.848865715112241
aF10.848877847833677
aF10.848896046612614
aF10.848926377102297
aF10.84893850901519
aF10.848944574911002
aF10.849084079358935
aF10.849096209170126
aF10.849120468307598
aF10.849126532990947
aF10.849132597633888
aF10.84919324184102
aF10.849247818173124
aF10.84926600955667
aF10.849284200576665
aF10.84934483468451
aF10.849350897873153
aF10.849363024129278
aF10.849514588701917
aF10.849520650759922
aF10.849569145770609
aF10.849581269119591
aF10.849635822191921
aF10.849647944652888
aF10.907423130815136
aF10.907519828926159
aF10.907588080231932
aF10.907599454952033
aF10.907656326420488
aF10.907662013371908
aF10.907696134334293
aF10.907724567492595
aF10.907781431144839
aF10.907787117314689
aF10.90779848954783
aF10.90780417561112
aF10.907957685895086
aF10.908202111801172
aF10.96257927023319
aF10.962584624187906
aF10.962600685863118
aF10.962622100989202
aF10.962729169062799
aF10.962777345587423
aF10.96297537784825
aF10.963071702291028
aF10.963168016541525
aF10.963173367034415
aF10.963275020424119
aF10.963488990459926
aF10.963510384697377
aF10.963542475110742
aF10.963558519893182
aF10.963569216257687
aF11.014588361552565
aF11.01459341817028
aF11.01460353132144
aF11.014608587854884
aF11.014679376373822
aF11.014719824484503
aF11.014734992062634
aF11.014745103640976
aF11.014765326460688
aF11.014785548831119
aF11.014800715314113
aF11.014881598955785
aF11.014987747829359
aF11.01505850686864
aF11.015063560875255
aF11.01506861485381
aF11.015200008447604
aF11.015210114861565
aF11.063766537819028
aF11.063776119133289
aF11.063795281459248
aF11.06382881455902
aF11.063847975775683
aF11.063881506934294
aF11.063886296998978
aF11.063929406446839
aF11.063943775809095
aF11.063948565546106
aF11.063953355257913
aF11.063972513853107
aF11.0639773034389
aF11.064044354993879
aF11.06406351167384
aF11.064068300780836
aF11.064245480028333
aF11.06428857246884
aF11.064355601099365
aF11.064456134791278
aF11.06452315108436
aF11.06460452137893
aF11.064738527185682
aF11.064953852337876
aF11.065016047899924
aF11.110487084861989
aF11.110555347172376
aF11.110596302101504
aF11.154861180781147
aF11.15487418404387
aF11.1548785184235
aF11.154887187120837
aF11.154891521438548
aF11.154895855735619
aF11.154904524267849
aF11.154921861084647
aF11.154939197571249
aF11.154952199719515
aF11.154956533727665
aF11.154973869553908
aF11.15498253734322
aF11.154995538872425
aF11.154999872674225
aF11.155043209557398
aF11.155047543132236
aF11.155064877225277
aF11.155069210696958
aF11.155099544421084
aF11.155103877727726
aF11.197205326814759
aF11.197234288379578
aF11.197250837431469
aF11.19733771501796
aF11.19734598864137
aF11.197391492225913
aF11.197449402589221
aF11.197461811473465
aF11.197494901004443
aF11.197507309268447
aF11.197519717363306
aF11.197532125289023
aF11.197540397145536
aF11.197556940633053
aF11.197614840471653
aF11.197618976033484
aF11.197656195244456
aF11.197660330618401
aF11.197681007206313
aF11.197722358973149
aF11.197759573957173
aF11.19787534417816
aF11.19790841867985
aF11.197924955480033
aF11.197929089633137
aF11.237678757467576
aF11.237730203423084
aF11.237738117927396
aF11.237742075153747
aF11.237746032362896
aF11.237777689416754
aF11.237785603508192
aF11.237805388435747
aF11.23781330228636
aF11.23782517293327
aF11.237844957000776
aF8.905784558541912
aF8.905806507777594
aF8.905856674951364
aF8.905872351477687
aF8.905878621992825
aF8.905916243939023
aF8.905925649118991
aF8.905941324146436
aF8.90596326861263
aF8.905966403481877
aF8.906004020850222
aF8.906044770785662
aF8.906079249702328
aF8.906094921392393
aF8.906110592741987
aF8.90612626375113
aF8.906154470709685
aF8.906160738772913
aF8.906248485939697
aF8.906254753186047
aF8.906314289310771
aF8.906333089171438
aF8.906348755347723
aF8.906358154890183
aF8.906376953607671
aF8.906402017802268
aF8.906433346820876
aF8.906480337797703
aF8.906505398400396
aF8.93634044574371
aF8.936343451339594
aF8.936367495655837
aF8.936445634149022
aF8.93647869019444
aF8.936496720126216
aF8.936508739830375
aF8.936526769011092
aF8.936571839991533
aF8.9366018857474
aF8.936616908156044
aF8.936637939002571
aF8.936655964954445
aF8.93668300303768
aF8.965787170046397
aF8.965795826130083
aF8.9658102527054
aF8.965839104990495
aF8.965873726209361
aF8.96588238125445
aF8.965899691033096
aF8.965922770091836
aF8.9659833491081
aF8.966009309986342
aF8.966055460351939
aF8.966072765977849
aF9.390825533245604
aF8.966078534427558
aF8.966084302831138
aF8.966191009977857
aF8.994078823253476
aF8.994089920779588
aF8.994092695134439
aF8.994101018134975
aF8.99413153498202
aF8.994145405849357
aF8.994150954121611
aF8.994164824615543
aF8.994187016851097
aF8.994206434497157
aF8.994256363187027
aF8.994264684299363
aF8.994289647060459
aF8.994311835456243
aF8.994328476305197
aF8.994339569991233
aF8.994342343386082
aF8.99436453016103
aF8.994375623292608
aF8.994381169794424
aF8.994406128524847
aF8.994456043395116
aF8.994458816342194
aF8.99446713511947
aF8.994564180433207
aF8.994566952964623
aF8.994572497995492
aF8.994575270494941
aF8.994583587929352
aF8.99459190526786
aF9.021310627407232
aF9.021332000033835
aF9.021337343091544
aF9.021430840195588
aF9.021436182521237
aF9.047541379485557
aF9.0475568366012
aF9.047567141160956
aF9.047636693089316
aF9.047688208713009
aF9.047690784397622
aF9.047742296158622
aF9.047855609086241
aF9.047863334319524
aF9.072849174739465
aF9.072854149515642
aF9.072869073638326
aF9.072893946489998
aF9.07289892095742
aF9.072901408178263
aF9.072943689620564
aF9.072948663744963
aF9.072958611890865
aF9.072961098905903
aF9.072978507771092
aF9.09730389206671
aF9.097308701018122
aF9.097313509937472
aF9.097327936503174
aF9.097330340902738
aF9.097356788769032
aF9.097371214469215
aF9.097383235665664
aF9.120956671891895
aF9.120975287011534
aF9.120982267557553
aF9.12098692121737
aF9.12098924803602
aF9.120998555235566
aF9.121003208790308
aF9.12100553555642
aF9.121021822709068
aF9.12102647611371
aF9.121028802804775
aF9.121033456164387
aF9.121042762793557
aF9.12104974268664
aF9.12105904910569
aF9.121063702270192
aF9.121066028841186
aF9.121070681960664
aF9.121073008509148
aF9.121075335050127
aF9.12108696764247
aF9.121103252956605
aF9.121117211504668
aF9.121124190677412
aF9.121128843421728
aF9.12113116978263
aF9.121142801474614
aF9.121154432979038
aF9.12120560937048
aF9.121212587688012
aF9.1212172398622
aF9.143876477388444
aF9.143896764431599
aF9.14390352665253
aF9.143998191090017
aF9.144043265027568
aF9.14404777226642
aF9.144050025875284
aF9.166064178879038
aF9.16607729397056
aF9.166081665614746
aF9.166103523438274
aF9.1661057091842
aF9.166114452101672
aF9.166149422711936
aF9.166177835084488
aF9.1661822061194
aF9.166199689994187
aF9.166223729630103
aF9.166249953773795
aF9.166273991734704
aF9.166284917815775
aF9.166313324852062
aF9.166326435414591
aF9.16632862048518
aF9.166350470827027
aF9.166359210778447
aF9.16638761488925
aF9.166398539249444
aF9.166402908947198
aF9.16641820268089
aF9.166422572259531
aF9.166450973875541
aF9.166457527935817
aF9.166464081936546
aF9.166470635877726
aF9.166477189759359
aF9.166479374373338
aF9.166485928175579
aF9.166496851046992
aF9.166520880781919
aF9.166538356450005
aF9.166542725300875
aF9.166564569158334
aF9.166568937850451
aF9.166579859464987
aF9.16658859663756
aF9.166599517954458
aF9.166630096762137
aF9.16667596254328
aF9.166678146555357
aF9.166717457642026
aF9.166913980946898
aF9.166929263848989
aF9.18758973200713
aF9.187591853608124
aF9.187596096791392
aF9.187617312333348
aF9.187623676874262
aF9.187644891605089
aF9.187647013043856
aF9.187651255902674
aF9.187655498736536
aF9.187672469822433
aF9.187687319195065
aF9.187693683118333
aF9.187700046985459
aF9.187733986661954
aF9.187736107838715
aF9.187742471331573
aF9.187780651109895
aF9.187795498255742
aF9.187818828867528
aF9.187827312539275
aF9.187829433441623
aF9.187831554337734
aF9.187833675227608
aF9.18786548782747
aF9.187886695447965
aF9.187890936897245
aF9.208501820221263
aF9.208510064098709
aF9.20852036881303
aF9.2085286124785
aF9.20853685604976
aF9.20864195332627
aF9.22883071285437
aF9.228834720262672
aF9.228836723958475
aF9.228842735012488
aF9.228852753324535
aF9.228856760610396
aF9.228858764244979
aF9.22886878233441
aF9.228872789531225
aF9.228888818095887
aF9.228896832244661
aF9.228900839285659
aF9.228914863753866
aF9.228920874156772
aF9.228922877613279
aF9.228930891383662
aF9.228936901653027
aF9.22894691865735
aF9.228950925420131
aF9.228954932160658
aF9.228958938878929
aF9.228962945574942
aF9.228972962217616
aF9.22897496552946
aF9.228976968835742
aF9.22898698528369
aF9.228988988556589
aF9.228990991823926
aF9.229009020979609
aF9.229015030598033
aF9.229043074822044
aF9.229055093441438
aF9.229083136107977
aF9.229085139113872
aF9.229087142114206
aF9.229093151081834
aF9.229109174750796
aF9.229113180612421
aF9.229129203836468
aF9.229137215315022
aF9.229141221020933
aF9.2291452267046
aF9.22916325200584
aF9.229177271373187
aF9.229179274117708
aF9.22924135644008
aF9.229279404254937
aF9.22934348024931
aF9.248584822174458
aF9.248614065321057
aF9.2486374589848
aF9.248655003734747
aF9.248692041250008
aF9.248760263274105
aF9.248805091377065
aF9.248976581881385
aF9.249001912249993
aF9.249038931958012
aF9.267823743052423
aF9.267827539588348
aF9.26783323435477
aF9.267846521968252
aF9.267854114780349
aF9.267857911156428
aF9.267909160278045
aF9.267916752430851
aF9.267962303669716
aF9.267988873897421
aF9.26799077173338
aF9.268013545375423
aF9.286559148812506
aF9.286568396774644
aF9.286573945495018
aF9.286581343722457
aF9.286614634806988
aF9.28663867741255
aF9.286640526810555
aF9.286642376203819
aF9.286647924355162
aF9.286649773729462
aF9.286662719216794
aF9.286664568553162
aF9.286673815163885
aF9.286692308029757
aF9.286716348046642
aF9.286742236399643
aF9.286757029327077
aF9.286760727511536
aF9.286762576596656
aF9.286803255270131
aF9.286810651146128
aF9.28681434905569
aF9.286825442670638
aF9.28683653611498
aF9.286840233891848
aF9.286856873653186
aF9.286860571325802
aF9.286867966614171
aF9.28687905940457
aF9.286888303266265
aF9.286890152024387
aF9.286917882827677
aF9.286921580187569
aF9.286928974850502
aF9.286969644141692
aF9.286973341236287
aF9.286975189776479
aF9.28698443240638
aF9.28699552340594
aF9.287030643779579
aF9.287034340561549
aF9.287047279149247
aF9.287052824187217
aF9.287056520855518
aF9.322644507668008
aF9.322648026367743
aF9.322653304385161
aF9.34001833614412
aF9.340021771107777
aF9.340026923522593
aF9.340045815395396
aF9.340054402446748
aF9.340059554628493
aF9.34006127201423
aF9.340099053466034
aF9.34010248804535
aF9.340129964091163
aF9.340136832939095
aF9.340140267338533
aF9.340148853265593
aF9.34015057043874
aF9.340155721933659
aF9.34016087339179
aF9.34016430767677
aF9.340171176197684
aF9.340183195951914
aF9.357008697473365
aF9.35703385961789
aF9.357117727094527
aF9.357147916999267
aF9.373575277938286
aF9.390841539856421
aF9.373581835583403
aF9.373590032555967
aF9.373591671939302
aF9.373596590066954
aF9.373599868800094
aF9.373619540885976
aF9.37362118020225
aF9.373627737430091
aF9.373629376727738
aF9.373635933881072
aF9.373650687258147
aF9.373652326503638
aF9.37365888344836
aF9.373668718753692
aF9.373675275549413
aF9.373691667277974
aF9.373706419515216
aF9.373721171450764
aF9.373742479269524
aF9.373768703413216
aF9.37377689826261
aF9.373790009828
aF9.373796565521324
aF9.373808037841284
aF9.373817871113175
aF9.373827704251022
aF9.373835898430169
aF9.373855564080356
aF9.373875229194427
aF9.373881784113317
aF9.373888338972643
aF9.38979395881372
aF9.389798767706354
aF9.38980037066344
aF9.389819605870658
aF9.389829223281923
aF9.3898356348182
aF9.389837237693364
aF9.389842046297488
aF9.389846854869559
aF9.389850060566463
aF9.389856471917536
aF9.389864486026243
aF9.38986929444873
aF9.389872500045913
aF9.389875705628853
aF9.3898853222922
aF9.389891733329874
aF9.389909363389688
aF9.389915774213698
aF9.389922184980735
aF9.389946224849714
aF9.38999430218432
aF9.389995904706957
aF9.389999109741547
aF9.3900023147619
aF9.390077628641041
aF9.390092049550692
aF9.39009685645651
aF9.39010326561444
aF9.390117686011582
aF9.39012089050513
aF9.390138514965196
aF9.390149730306492
aF9.390152934657694
aF9.39016094547342
aF9.39016254762589
aF9.39021701869268
aF9.390231436815993
aF9.390301921270703
aF9.39033716091553
aF9.390356381814396
aF9.390404431820993
aF9.390473297915964
aF9.390498920831227
aF9.390522941487715
aF9.390534150853677
aF9.390558170337064
aF9.39067665475096
aF9.390684659752736
aF9.390687861728571
aF9.390697467570803
aF9.390750297416695
aF9.390759902427542
aF9.390771108111888
aF9.390798321192039
aF9.390804724120525
aF9.390819130501823
aF9.390852744272662
aF9.390859146718093
aF9.390878353713433
aF9.390881554829601
aF9.39090716324757
aF9.390924768507581
aF9.390971180315379
aF9.39102399011971
aF9.39104479292055
aF9.391065595121479
aF9.39109599725916
aF9.391115197949109
aF9.391145597996331
aF9.391151997843027
aF9.391163197438118
aF9.391174396859327
aF9.391185596106661
aF9.40563873594831
aF9.405643440363093
aF9.405645008494536
aF9.405652849100619
aF9.40567009813402
aF9.40571086693706
aF9.421155219944724
aF9.451217000359481
aF9.451218472483758
aF9.451221416723302
aF9.451224360950825
aF9.451227305166332
aF9.451236137740755
aF9.45124202606362
a.